target datalayout = "e-m:e-p270:32:32-p271:32:32-p272:64:64-i64:64-i128:128-f80:128-n8:16:32:64-S128"
target triple = "x86_64-pc-linux-gnu"

%struct._connParams = type { ptr, ptr, ptr, ptr, i32, ptr }
%struct._restoreOptions = type { i32, i32, i32, i32, i32, i32, ptr, ptr, i32, i32, i32, i32, i32, i32, i32, i32, i32, i32, ptr, i32, i32, i32, ptr, i32, i32, ptr, i32, ptr, i32, i32, i32, i32, i32, %struct.SimpleStringList, %struct.SimpleStringList, %struct.SimpleStringList, %struct.SimpleStringList, %struct.SimpleStringList, %struct.SimpleStringList, i32, %struct._connParams, i32, i32, %struct.pg_compress_specification, i32, i8, i32, ptr, i32, i32, i32, i8, i8 }
%struct.SimpleStringList = type { ptr, ptr }
%struct.pg_compress_specification = type { i32, i32, i32, i32, i8, ptr }
%struct._archiveHandle = type { %struct.Archive, i32, ptr, ptr, i64, i64, i32, %struct.sqlparseInfo, i64, i32, ptr, i64, i64, i64, ptr, ptr, ptr, ptr, ptr, ptr, ptr, ptr, ptr, ptr, ptr, ptr, ptr, ptr, ptr, ptr, ptr, ptr, ptr, ptr, ptr, ptr, ptr, ptr, ptr, ptr, ptr, ptr, ptr, ptr, i32, i32, i8, i32, i8, i32, ptr, ptr, ptr, ptr, i32, i32, ptr, ptr, ptr, %struct.pg_compress_specification, i8, i32, i32, ptr, ptr, ptr, ptr, ptr, i32, ptr, i64, i64, i32, i32, i32, i32, ptr, ptr }
%struct.Archive = type { ptr, ptr, i32, ptr, i32, i8, i32, i32, i32, ptr, i32, i8, ptr, ptr, i8, i32, ptr }
%struct.sqlparseInfo = type { i32, i8, ptr }
%struct._tocEntry = type { ptr, ptr, %struct.CatalogId, i32, i32, i8, ptr, ptr, ptr, ptr, i8, ptr, ptr, ptr, ptr, ptr, ptr, i32, ptr, ptr, ptr, i64, i32, i8, ptr, ptr, i32, ptr, i32, ptr, i32 }
%struct.CatalogId = type { i32, i32 }
%struct.StringInfoData = type { ptr, i32, i32, i32 }

@.str.71 = private unnamed_addr constant [2 x i8] c"r\00", align 1
@.str.72 = private unnamed_addr constant [33 x i8] c"could not open TOC file \22%s\22: %m\00", align 1
@.str.73 = private unnamed_addr constant [5 x i8] c" \09\0D\0A\00", align 1
@.str.74 = private unnamed_addr constant [17 x i8] c"line ignored: %s\00", align 1
@.str.75 = private unnamed_addr constant [31 x i8] c"could not find entry for ID %d\00", align 1
@.str.76 = private unnamed_addr constant [29 x i8] c"could not close TOC file: %m\00", align 1

; Function Attrs: nounwind uwtable
define internal void @_moveBefore(ptr noundef %0, ptr noundef %1) #0 {
  %3 = alloca ptr, align 8
  %4 = alloca ptr, align 8
  store ptr %0, ptr %3, align 8
  store ptr %1, ptr %4, align 8
  %5 = load ptr, ptr %4, align 8
  %6 = getelementptr inbounds nuw %struct._tocEntry, ptr %5, i32 0, i32 1
  %7 = load ptr, ptr %6, align 8
  %8 = load ptr, ptr %4, align 8
  %9 = getelementptr inbounds nuw %struct._tocEntry, ptr %8, i32 0, i32 0
  %10 = load ptr, ptr %9, align 8
  %11 = getelementptr inbounds nuw %struct._tocEntry, ptr %10, i32 0, i32 1
  store ptr %7, ptr %11, align 8
  %12 = load ptr, ptr %4, align 8
  %13 = getelementptr inbounds nuw %struct._tocEntry, ptr %12, i32 0, i32 0
  %14 = load ptr, ptr %13, align 8
  %15 = load ptr, ptr %4, align 8
  %16 = getelementptr inbounds nuw %struct._tocEntry, ptr %15, i32 0, i32 1
  %17 = load ptr, ptr %16, align 8
  %18 = getelementptr inbounds nuw %struct._tocEntry, ptr %17, i32 0, i32 0
  store ptr %14, ptr %18, align 8
  %19 = load ptr, ptr %3, align 8
  %20 = getelementptr inbounds nuw %struct._tocEntry, ptr %19, i32 0, i32 0
  %21 = load ptr, ptr %20, align 8
  %22 = load ptr, ptr %4, align 8
  %23 = getelementptr inbounds nuw %struct._tocEntry, ptr %22, i32 0, i32 0
  store ptr %21, ptr %23, align 8
  %24 = load ptr, ptr %3, align 8
  %25 = load ptr, ptr %4, align 8
  %26 = getelementptr inbounds nuw %struct._tocEntry, ptr %25, i32 0, i32 1
  store ptr %24, ptr %26, align 8
  %27 = load ptr, ptr %4, align 8
  %28 = load ptr, ptr %3, align 8
  %29 = getelementptr inbounds nuw %struct._tocEntry, ptr %28, i32 0, i32 0
  %30 = load ptr, ptr %29, align 8
  %31 = getelementptr inbounds nuw %struct._tocEntry, ptr %30, i32 0, i32 1
  store ptr %27, ptr %31, align 8
  %32 = load ptr, ptr %4, align 8
  %33 = load ptr, ptr %3, align 8
  %34 = getelementptr inbounds nuw %struct._tocEntry, ptr %33, i32 0, i32 0
  store ptr %32, ptr %34, align 8
  ret void
}

; Function Attrs: nounwind uwtable
define dso_local ptr @getTocEntryByDumpId(ptr noundef %0, i32 noundef %1) #0 {
  %3 = alloca ptr, align 8
  %4 = alloca ptr, align 8
  %5 = alloca i32, align 4
  store ptr %0, ptr %4, align 8
  store i32 %1, ptr %5, align 4
  %6 = load ptr, ptr %4, align 8
  %7 = getelementptr inbounds nuw %struct._archiveHandle, ptr %6, i32 0, i32 56
  %8 = load ptr, ptr %7, align 8
  %9 = icmp eq ptr %8, null
  br i1 %9, label %10, label %12

10:                                               ; preds = %2
  %11 = load ptr, ptr %4, align 8
  call void @buildTocEntryArrays(ptr noundef %11)
  br label %12

12:                                               ; preds = %10, %2
  %13 = load i32, ptr %5, align 4
  %14 = icmp sgt i32 %13, 0
  br i1 %14, label %15, label %29

15:                                               ; preds = %12
  %16 = load i32, ptr %5, align 4
  %17 = load ptr, ptr %4, align 8
  %18 = getelementptr inbounds nuw %struct._archiveHandle, ptr %17, i32 0, i32 55
  %19 = load i32, ptr %18, align 4
  %20 = icmp sle i32 %16, %19
  br i1 %20, label %21, label %29

21:                                               ; preds = %15
  %22 = load ptr, ptr %4, align 8
  %23 = getelementptr inbounds nuw %struct._archiveHandle, ptr %22, i32 0, i32 56
  %24 = load ptr, ptr %23, align 8
  %25 = load i32, ptr %5, align 4
  %26 = sext i32 %25 to i64
  %27 = getelementptr inbounds ptr, ptr %24, i64 %26
  %28 = load ptr, ptr %27, align 8
  store ptr %28, ptr %3, align 8
  br label %30

29:                                               ; preds = %15, %12
  store ptr null, ptr %3, align 8
  br label %30

30:                                               ; preds = %29, %21
  %31 = load ptr, ptr %3, align 8
  ret ptr %31
}

; Function Attrs: nounwind uwtable
define dso_local void @SortTocFromFile(ptr noundef %0) #0 {
  %2 = alloca ptr, align 8
  %3 = alloca ptr, align 8
  %4 = alloca ptr, align 8
  %5 = alloca ptr, align 8
  %6 = alloca %struct.StringInfoData, align 8
  %7 = alloca ptr, align 8
  %8 = alloca ptr, align 8
  %9 = alloca i32, align 4
  %10 = alloca ptr, align 8
  %11 = alloca i32, align 4
  store ptr %0, ptr %2, align 8
  call void @llvm.lifetime.start.p0(i64 8, ptr %3) #11
  %12 = load ptr, ptr %2, align 8
  store ptr %12, ptr %3, align 8
  call void @llvm.lifetime.start.p0(i64 8, ptr %4) #11
  %13 = load ptr, ptr %3, align 8
  %14 = getelementptr inbounds nuw %struct._archiveHandle, ptr %13, i32 0, i32 0
  %15 = getelementptr inbounds nuw %struct.Archive, ptr %14, i32 0, i32 1
  %16 = load ptr, ptr %15, align 8
  store ptr %16, ptr %4, align 8
  call void @llvm.lifetime.start.p0(i64 8, ptr %5) #11
  call void @llvm.lifetime.start.p0(i64 24, ptr %6) #11
  %17 = load ptr, ptr %3, align 8
  %18 = getelementptr inbounds nuw %struct._archiveHandle, ptr %17, i32 0, i32 55
  %19 = load i32, ptr %18, align 4
  %20 = sext i32 %19 to i64
  %21 = mul i64 1, %20
  %22 = call ptr @pg_malloc0(i64 noundef %21)
  %23 = load ptr, ptr %4, align 8
  %24 = getelementptr inbounds nuw %struct._restoreOptions, ptr %23, i32 0, i32 47
  store ptr %22, ptr %24, align 8
  %25 = load ptr, ptr %4, align 8
  %26 = getelementptr inbounds nuw %struct._restoreOptions, ptr %25, i32 0, i32 25
  %27 = load ptr, ptr %26, align 8
  %28 = call noalias ptr @fopen(ptr noundef %27, ptr noundef @.str.71)
  store ptr %28, ptr %5, align 8
  %29 = load ptr, ptr %5, align 8
  %30 = icmp ne ptr %29, null
  br i1 %30, label %38, label %31

31:                                               ; preds = %1
  br label %32

32:                                               ; preds = %31
  %33 = load ptr, ptr %4, align 8
  %34 = getelementptr inbounds nuw %struct._restoreOptions, ptr %33, i32 0, i32 25
  %35 = load ptr, ptr %34, align 8
  call void (i32, i32, ptr, ...) @pg_log_generic(i32 noundef 4, i32 noundef 0, ptr noundef @.str.72, ptr noundef %35)
  call void @exit_nicely(i32 noundef 1) #12
  unreachable

36:                                               ; No predecessors!
  br label %37

37:                                               ; preds = %36
  br label %38

38:                                               ; preds = %37, %1
  call void @initStringInfo(ptr noundef %6)
  br label %39

39:                                               ; preds = %124, %122, %38
  %40 = load ptr, ptr %5, align 8
  %41 = call zeroext i1 @pg_get_line_buf(ptr noundef %40, ptr noundef %6)
  br i1 %41, label %42, label %125

42:                                               ; preds = %39
  call void @llvm.lifetime.start.p0(i64 8, ptr %7) #11
  call void @llvm.lifetime.start.p0(i64 8, ptr %8) #11
  call void @llvm.lifetime.start.p0(i64 4, ptr %9) #11
  call void @llvm.lifetime.start.p0(i64 8, ptr %10) #11
  %43 = getelementptr inbounds nuw %struct.StringInfoData, ptr %6, i32 0, i32 0
  %44 = load ptr, ptr %43, align 8
  %45 = call ptr @strchr(ptr noundef %44, i32 noundef 59) #14
  store ptr %45, ptr %7, align 8
  %46 = load ptr, ptr %7, align 8
  %47 = icmp ne ptr %46, null
  br i1 %47, label %48, label %59

48:                                               ; preds = %42
  %49 = load ptr, ptr %7, align 8
  %50 = getelementptr inbounds i8, ptr %49, i64 0
  store i8 0, ptr %50, align 1
  %51 = load ptr, ptr %7, align 8
  %52 = getelementptr inbounds nuw %struct.StringInfoData, ptr %6, i32 0, i32 0
  %53 = load ptr, ptr %52, align 8
  %54 = ptrtoint ptr %51 to i64
  %55 = ptrtoint ptr %53 to i64
  %56 = sub i64 %54, %55
  %57 = trunc i64 %56 to i32
  %58 = getelementptr inbounds nuw %struct.StringInfoData, ptr %6, i32 0, i32 1
  store i32 %57, ptr %58, align 8
  br label %59

59:                                               ; preds = %48, %42
  %60 = getelementptr inbounds nuw %struct.StringInfoData, ptr %6, i32 0, i32 0
  %61 = load ptr, ptr %60, align 8
  %62 = call i64 @strspn(ptr noundef %61, ptr noundef @.str.73) #14
  %63 = getelementptr inbounds nuw %struct.StringInfoData, ptr %6, i32 0, i32 1
  %64 = load i32, ptr %63, align 8
  %65 = sext i32 %64 to i64
  %66 = icmp eq i64 %62, %65
  br i1 %66, label %67, label %68

67:                                               ; preds = %59
  store i32 4, ptr %11, align 4
  br label %122, !llvm.loop !21

68:                                               ; preds = %59
  %69 = getelementptr inbounds nuw %struct.StringInfoData, ptr %6, i32 0, i32 0
  %70 = load ptr, ptr %69, align 8
  %71 = call i64 @strtol(ptr noundef %70, ptr noundef %8, i32 noundef 10) #11
  %72 = trunc i64 %71 to i32
  store i32 %72, ptr %9, align 4
  %73 = load ptr, ptr %8, align 8
  %74 = getelementptr inbounds nuw %struct.StringInfoData, ptr %6, i32 0, i32 0
  %75 = load ptr, ptr %74, align 8
  %76 = icmp eq ptr %73, %75
  br i1 %76, label %96, label %77

77:                                               ; preds = %68
  %78 = load i32, ptr %9, align 4
  %79 = icmp sle i32 %78, 0
  br i1 %79, label %96, label %80

80:                                               ; preds = %77
  %81 = load i32, ptr %9, align 4
  %82 = load ptr, ptr %3, align 8
  %83 = getelementptr inbounds nuw %struct._archiveHandle, ptr %82, i32 0, i32 55
  %84 = load i32, ptr %83, align 4
  %85 = icmp sgt i32 %81, %84
  br i1 %85, label %96, label %86

86:                                               ; preds = %80
  %87 = load ptr, ptr %4, align 8
  %88 = getelementptr inbounds nuw %struct._restoreOptions, ptr %87, i32 0, i32 47
  %89 = load ptr, ptr %88, align 8
  %90 = load i32, ptr %9, align 4
  %91 = sub i32 %90, 1
  %92 = sext i32 %91 to i64
  %93 = getelementptr inbounds i8, ptr %89, i64 %92
  %94 = load i8, ptr %93, align 1, !range !4, !noundef !5
  %95 = trunc i8 %94 to i1
  br i1 %95, label %96, label %99

96:                                               ; preds = %86, %80, %77, %68
  %97 = getelementptr inbounds nuw %struct.StringInfoData, ptr %6, i32 0, i32 0
  %98 = load ptr, ptr %97, align 8
  call void (i32, i32, ptr, ...) @pg_log_generic(i32 noundef 3, i32 noundef 0, ptr noundef @.str.74, ptr noundef %98)
  store i32 4, ptr %11, align 4
  br label %122, !llvm.loop !21

99:                                               ; preds = %86
  %100 = load ptr, ptr %3, align 8
  %101 = load i32, ptr %9, align 4
  %102 = call ptr @getTocEntryByDumpId(ptr noundef %100, i32 noundef %101)
  store ptr %102, ptr %10, align 8
  %103 = load ptr, ptr %10, align 8
  %104 = icmp ne ptr %103, null
  br i1 %104, label %110, label %105

105:                                              ; preds = %99
  br label %106

106:                                              ; preds = %105
  %107 = load i32, ptr %9, align 4
  call void (i32, i32, ptr, ...) @pg_log_generic(i32 noundef 4, i32 noundef 0, ptr noundef @.str.75, i32 noundef %107)
  call void @exit_nicely(i32 noundef 1) #12
  unreachable

108:                                              ; No predecessors!
  br label %109

109:                                              ; preds = %108
  br label %110

110:                                              ; preds = %109, %99
  %111 = load ptr, ptr %4, align 8
  %112 = getelementptr inbounds nuw %struct._restoreOptions, ptr %111, i32 0, i32 47
  %113 = load ptr, ptr %112, align 8
  %114 = load i32, ptr %9, align 4
  %115 = sub i32 %114, 1
  %116 = sext i32 %115 to i64
  %117 = getelementptr inbounds i8, ptr %113, i64 %116
  store i8 1, ptr %117, align 1
  %118 = load ptr, ptr %3, align 8
  %119 = getelementptr inbounds nuw %struct._archiveHandle, ptr %118, i32 0, i32 53
  %120 = load ptr, ptr %119, align 8
  %121 = load ptr, ptr %10, align 8
  call void @_moveBefore(ptr noundef %120, ptr noundef %121)
  store i32 0, ptr %11, align 4
  br label %122

122:                                              ; preds = %110, %96, %67
  call void @llvm.lifetime.end.p0(i64 8, ptr %10) #11
  call void @llvm.lifetime.end.p0(i64 4, ptr %9) #11
  call void @llvm.lifetime.end.p0(i64 8, ptr %8) #11
  call void @llvm.lifetime.end.p0(i64 8, ptr %7) #11
  %123 = load i32, ptr %11, align 4
  switch i32 %123, label %136 [
    i32 0, label %124
    i32 4, label %39
  ]

124:                                              ; preds = %122
  br label %39, !llvm.loop !21

125:                                              ; preds = %39
  %126 = getelementptr inbounds nuw %struct.StringInfoData, ptr %6, i32 0, i32 0
  %127 = load ptr, ptr %126, align 8
  call void @pg_free(ptr noundef %127)
  %128 = load ptr, ptr %5, align 8
  %129 = call i32 @fclose(ptr noundef %128)
  %130 = icmp ne i32 %129, 0
  br i1 %130, label %131, label %135

131:                                              ; preds = %125
  br label %132

132:                                              ; preds = %131
  call void (i32, i32, ptr, ...) @pg_log_generic(i32 noundef 4, i32 noundef 0, ptr noundef @.str.76)
  call void @exit_nicely(i32 noundef 1) #12
  unreachable

133:                                              ; No predecessors!
  br label %134

134:                                              ; preds = %133
  br label %135

135:                                              ; preds = %134, %125
  call void @llvm.lifetime.end.p0(i64 24, ptr %6) #11
  call void @llvm.lifetime.end.p0(i64 8, ptr %5) #11
  call void @llvm.lifetime.end.p0(i64 8, ptr %4) #11
  call void @llvm.lifetime.end.p0(i64 8, ptr %3) #11
  ret void

136:                                              ; preds = %122
  unreachable
}