; Function Attrs: nounwind uwtable
define dso_local void @SortTocFromFile(ptr noundef captures(none) %0) local_unnamed_addr #0 {
  %2 = alloca %struct.StringInfoData, align 8
  %3 = alloca ptr, align 8
  %4 = getelementptr inbounds nuw i8, ptr %0, i64 8
  %5 = load ptr, ptr %4, align 8
  call void @llvm.lifetime.start.p0(i64 24, ptr nonnull %2) #22
  %6 = getelementptr inbounds nuw i8, ptr %0, i64 516
  %7 = load i32, ptr %6, align 4
  %8 = sext i32 %7 to i64
  %9 = tail call ptr @pg_malloc0(i64 noundef %8) #22
  %10 = getelementptr inbounds nuw i8, ptr %5, i64 376
  store ptr %9, ptr %10, align 8
  %11 = getelementptr inbounds nuw i8, ptr %5, i64 120
  %12 = load ptr, ptr %11, align 8
  %13 = tail call noalias ptr @fopen(ptr noundef %12, ptr noundef nonnull @.str.71)
  %.not = icmp eq ptr %13, null
  br i1 %.not, label %14, label %16

14:                                               ; preds = %1
  %15 = load ptr, ptr %11, align 8
  tail call void (i32, i32, ptr, ...) @pg_log_generic(i32 noundef 4, i32 noundef 0, ptr noundef nonnull @.str.72, ptr noundef %15) #22
  tail call void @exit_nicely(i32 noundef 1) #23
  unreachable

16:                                               ; preds = %1
  call void @initStringInfo(ptr noundef nonnull %2) #22
  %17 = call zeroext i1 @pg_get_line_buf(ptr noundef nonnull %13, ptr noundef nonnull %2) #22
  br i1 %17, label %.lr.ph, label %._crit_edge

.lr.ph:                                           ; preds = %16
  %18 = getelementptr inbounds nuw i8, ptr %2, i64 8
  %19 = getelementptr inbounds nuw i8, ptr %0, i64 520
  %20 = getelementptr inbounds nuw i8, ptr %0, i64 504
  br label %21

21:                                               ; preds = %.lr.ph, %76
  call void @llvm.lifetime.start.p0(i64 8, ptr nonnull %3) #22
  %22 = load ptr, ptr %2, align 8
  %23 = call ptr @strchr(ptr noundef nonnull dereferenceable(1) %22, i32 noundef 59) #24
  %.not29 = icmp eq ptr %23, null
  br i1 %.not29, label %._crit_edge33, label %24

._crit_edge33:                                    ; preds = %21
  %.pre = load i32, ptr %18, align 8
  br label %30

24:                                               ; preds = %21
  store i8 0, ptr %23, align 1
  %25 = load ptr, ptr %2, align 8
  %26 = ptrtoint ptr %23 to i64
  %27 = ptrtoint ptr %25 to i64
  %28 = sub i64 %26, %27
  %29 = trunc i64 %28 to i32
  store i32 %29, ptr %18, align 8
  br label %30

30:                                               ; preds = %._crit_edge33, %24
  %31 = phi i32 [ %29, %24 ], [ %.pre, %._crit_edge33 ]
  %32 = phi ptr [ %25, %24 ], [ %22, %._crit_edge33 ]
  %33 = call i64 @strspn(ptr noundef %32, ptr noundef nonnull @.str.73) #24
  %34 = sext i32 %31 to i64
  %35 = icmp eq i64 %33, %34
  br i1 %35, label %76, label %36, !llvm.loop !42

36:                                               ; preds = %30
  %37 = call i64 @strtol(ptr noundef %32, ptr noundef nonnull %3, i32 noundef 10) #22
  %38 = trunc i64 %37 to i32
  %39 = load ptr, ptr %3, align 8
  %40 = load ptr, ptr %2, align 8
  %41 = icmp eq ptr %39, %40
  %42 = icmp slt i32 %38, 1
  %or.cond = select i1 %41, i1 true, i1 %42
  br i1 %or.cond, label %53, label %43

43:                                               ; preds = %36
  %44 = load i32, ptr %6, align 4
  %45 = icmp slt i32 %44, %38
  br i1 %45, label %53, label %46

46:                                               ; preds = %43
  %47 = load ptr, ptr %10, align 8
  %48 = add i64 %37, 4294967295
  %49 = and i64 %48, 4294967295
  %50 = getelementptr inbounds nuw i8, ptr %47, i64 %49
  %51 = load i8, ptr %50, align 1, !range !4, !noundef !5
  %52 = trunc nuw i8 %51 to i1
  br i1 %52, label %53, label %54

53:                                               ; preds = %46, %43, %36
  call void (i32, i32, ptr, ...) @pg_log_generic(i32 noundef 3, i32 noundef 0, ptr noundef nonnull @.str.74, ptr noundef %40) #22
  br label %76, !llvm.loop !42

54:                                               ; preds = %46
  %55 = load ptr, ptr %19, align 8
  %56 = icmp eq ptr %55, null
  br i1 %56, label %57, label %58

57:                                               ; preds = %54
  call fastcc void @buildTocEntryArrays(ptr noundef nonnull %0)
  %.pre34 = load i32, ptr %6, align 4
  br label %58

58:                                               ; preds = %54, %57
  %59 = phi i32 [ %44, %54 ], [ %.pre34, %57 ]
  %.not.i = icmp slt i32 %59, %38
  br i1 %.not.i, label %getTocEntryByDumpId.exit.thread, label %getTocEntryByDumpId.exit

getTocEntryByDumpId.exit:                         ; preds = %58
  %60 = load ptr, ptr %19, align 8
  %61 = and i64 %37, 2147483647
  %62 = getelementptr inbounds nuw ptr, ptr %60, i64 %61
  %63 = load ptr, ptr %62, align 8
  %.not30 = icmp eq ptr %63, null
  br i1 %.not30, label %getTocEntryByDumpId.exit.thread, label %64

getTocEntryByDumpId.exit.thread:                  ; preds = %58, %getTocEntryByDumpId.exit
  call void (i32, i32, ptr, ...) @pg_log_generic(i32 noundef 4, i32 noundef 0, ptr noundef nonnull @.str.75, i32 noundef %38) #22
  call void @exit_nicely(i32 noundef 1) #23
  unreachable

64:                                               ; preds = %getTocEntryByDumpId.exit
  %65 = load ptr, ptr %10, align 8
  %66 = getelementptr inbounds nuw i8, ptr %65, i64 %49
  store i8 1, ptr %66, align 1
  %67 = load ptr, ptr %20, align 8
  %68 = getelementptr inbounds nuw i8, ptr %63, i64 8
  %69 = load ptr, ptr %68, align 8
  %70 = load ptr, ptr %63, align 8
  %71 = getelementptr inbounds nuw i8, ptr %70, i64 8
  store ptr %69, ptr %71, align 8
  %72 = load ptr, ptr %63, align 8
  store ptr %72, ptr %69, align 8
  %73 = load ptr, ptr %67, align 8
  store ptr %73, ptr %63, align 8
  store ptr %67, ptr %68, align 8
  %74 = load ptr, ptr %67, align 8
  %75 = getelementptr inbounds nuw i8, ptr %74, i64 8
  store ptr %63, ptr %75, align 8
  store ptr %63, ptr %67, align 8
  br label %76

76:                                               ; preds = %30, %64, %53
  call void @llvm.lifetime.end.p0(i64 8, ptr nonnull %3) #22
  %77 = call zeroext i1 @pg_get_line_buf(ptr noundef nonnull %13, ptr noundef nonnull %2) #22
  br i1 %77, label %21, label %._crit_edge

._crit_edge:                                      ; preds = %76, %16
  %78 = load ptr, ptr %2, align 8
  call void @pg_free(ptr noundef %78) #22
  %79 = call i32 @fclose(ptr noundef nonnull %13)
  %.not28 = icmp eq i32 %79, 0
  br i1 %.not28, label %81, label %80

80:                                               ; preds = %._crit_edge
  call void (i32, i32, ptr, ...) @pg_log_generic(i32 noundef 4, i32 noundef 0, ptr noundef nonnull @.str.76) #22
  call void @exit_nicely(i32 noundef 1) #23
  unreachable

81:                                               ; preds = %._crit_edge
  call void @llvm.lifetime.end.p0(i64 24, ptr nonnull %2) #22
  ret void
}